target datalayout = "e-m:e-p270:32:32-p271:32:32-p272:64:64-i64:64-i128:128-f80:128-n8:16:32:64-S128"
target triple = "x86_64-pc-linux-gnu"

%struct.slurm_conf_t = type { i64, ptr, i16, ptr, ptr, ptr, ptr, ptr, i16, ptr, ptr, ptr, ptr, ptr, ptr, ptr, i16, ptr, ptr, ptr, ptr, i16, ptr, ptr, ptr, i64, ptr, ptr, ptr, ptr, i16, ptr, ptr, i16, i32, ptr, i32, ptr, i32, i32, ptr, ptr, i64, i64, ptr, i16, i16, ptr, i32, i32, ptr, i32, ptr, i32, i16, i16, i16, ptr, i16, i16, ptr, ptr, i32, i16, i16, ptr, i32, i16, ptr, ptr, ptr, ptr, i16, ptr, ptr, ptr, ptr, i32, ptr, ptr, ptr, ptr, i16, i16, ptr, i32, i32, i32, i16, i16, ptr, ptr, i16, ptr, ptr, i32, i32, i32, i32, i32, i64, i32, i32, i16, ptr, ptr, i32, ptr, ptr, ptr, i16, i32, ptr, ptr, i16, ptr, ptr, i32, i16, ptr, ptr, ptr, ptr, i32, i32, i16, i16, i32, ptr, i16, ptr, i32, i32, i32, i32, i32, i32, ptr, i16, ptr, ptr, i32, i16, ptr, i32, i16, i16, ptr, ptr, ptr, i16, ptr, ptr, ptr, ptr, i16, i16, ptr, i16, ptr, i16, ptr, i16, ptr, i16, ptr, ptr, ptr, ptr, i16, ptr, ptr, ptr, i32, ptr, i32, ptr, ptr, i16, ptr, ptr, i32, i16, ptr, ptr, i16, i16, ptr, i16, ptr, ptr, ptr, i32, ptr, i16, i16, ptr, ptr, ptr, ptr, ptr, ptr, ptr, ptr, i16, i32, i16, ptr, ptr, ptr, ptr, i32, ptr, ptr, ptr, i16, ptr, ptr, ptr, i16, ptr, i16, ptr, i16, i16, ptr }
%union.pthread_mutex_t = type { %struct.__pthread_mutex_s }
%struct.__pthread_mutex_s = type { i32, i32, i32, i32, i32, i16, i16, %struct.__pthread_internal_list }
%struct.__pthread_internal_list = type { ptr, ptr }
%struct.part_record = type { i32, ptr, ptr, ptr, ptr, ptr, ptr, i32, ptr, ptr, ptr, ptr, ptr, i32, i64, i32, ptr, ptr, ptr, ptr, ptr, i32, i32, ptr, i32, i32, i64, i32, i32, i16, i32, i32, i32, i32, ptr, ptr, ptr, ptr, ptr, double, i16, i16, i16, i16, ptr, ptr, i16, i16, i32, i16, i32, i32, i32, i32, i16, ptr, ptr, ptr }
%struct.job_record = type { i32, ptr, ptr, ptr, ptr, i16, i32, i32, i32, ptr, i32, ptr, ptr, i16, ptr, double, i64, ptr, ptr, ptr, ptr, ptr, ptr, i32, ptr, i32, i64, i64, i32, i32, ptr, i16, i64, i64, i8, i32, ptr, ptr, ptr, ptr, ptr, ptr, ptr, ptr, i32, ptr, ptr, i32, ptr, i32, ptr, i32, ptr, i32, ptr, ptr, ptr, ptr, ptr, ptr, i32, i16, i64, ptr, ptr, ptr, ptr, %struct.acct_policy_limit_set_t, i16, ptr, ptr, ptr, ptr, ptr, i32, ptr, ptr, ptr, ptr, ptr, i32, i32, ptr, ptr, ptr, i16, ptr, ptr, i8, ptr, ptr, i64, i64, i8, i32, i32, i8, i32, ptr, i32, i64, i32, ptr, ptr, ptr, i8, i16, i64, i32, ptr, ptr, ptr, ptr, ptr, i16, i32, ptr, ptr, ptr, ptr, i32, ptr, i32, i16, i64, ptr, i32, i32, ptr, i64, ptr, ptr, i64, i32, i32, i64, i32, i32, ptr, ptr, ptr, ptr, ptr, ptr, ptr, ptr, ptr, ptr, ptr, ptr, i32, ptr, i16, i16, i16, i16, ptr, i32, i32, i8, i64 }
%struct.acct_policy_limit_set_t = type { i16, i16, ptr }

@slurm_conf = external global %struct.slurm_conf_t, align 8
@data_mutex = internal global %union.pthread_mutex_t zeroinitializer, align 8
@.str.1 = private unnamed_addr constant [29 x i8] c"%s: pthread_mutex_lock(): %m\00", align 1
@.str.2 = private unnamed_addr constant [31 x i8] c"%s: pthread_mutex_unlock(): %m\00", align 1
@gs_part_list = internal global ptr null, align 8
@.str.9 = private unnamed_addr constant [32 x i8] c"GANG: gang: entering %s for %pJ\00", align 1
@__func__.gs_job_start = private unnamed_addr constant [13 x i8] c"gs_job_start\00", align 1
@.str.10 = private unnamed_addr constant [42 x i8] c"gang: could not find partition %s for %pJ\00", align 1
@.str.11 = private unnamed_addr constant [33 x i8] c"GANG: gang: leaving gs_job_start\00", align 1

; Function Attrs: nounwind uwtable
define internal void @_update_all_active_rows() #0 {
  %1 = alloca ptr, align 8
  %2 = alloca ptr, align 8
  call void @llvm.lifetime.start.p0(i64 8, ptr %1) #8
  call void @llvm.lifetime.start.p0(i64 8, ptr %2) #8
  %3 = load ptr, ptr @gs_part_list, align 8
  call void @list_sort(ptr noundef %3, ptr noundef @_sort_partitions)
  %4 = load ptr, ptr @gs_part_list, align 8
  %5 = call ptr @list_iterator_create(ptr noundef %4)
  store ptr %5, ptr %1, align 8
  br label %6

6:                                                ; preds = %10, %0
  %7 = load ptr, ptr %1, align 8
  %8 = call ptr @list_next(ptr noundef %7)
  store ptr %8, ptr %2, align 8
  %9 = icmp ne ptr %8, null
  br i1 %9, label %10, label %12

10:                                               ; preds = %6
  %11 = load ptr, ptr %2, align 8
  call void @_update_active_row(ptr noundef %11, i32 noundef 1)
  br label %6, !llvm.loop !14

12:                                               ; preds = %6
  %13 = load ptr, ptr %1, align 8
  call void @list_iterator_destroy(ptr noundef %13)
  call void @llvm.lifetime.end.p0(i64 8, ptr %2) #8
  call void @llvm.lifetime.end.p0(i64 8, ptr %1) #8
  ret void
}

; Function Attrs: nounwind uwtable
define dso_local void @gs_job_start(ptr noundef %0) #0 {
  %2 = alloca ptr, align 8
  %3 = alloca ptr, align 8
  %4 = alloca i16, align 2
  %5 = alloca ptr, align 8
  %6 = alloca i32, align 4
  %7 = alloca i32, align 4
  %8 = alloca i32, align 4
  store ptr %0, ptr %2, align 8
  call void @llvm.lifetime.start.p0(i64 8, ptr %3) #8
  call void @llvm.lifetime.start.p0(i64 2, ptr %4) #8
  call void @llvm.lifetime.start.p0(i64 8, ptr %5) #8
  %9 = load i16, ptr getelementptr inbounds nuw (%struct.slurm_conf_t, ptr @slurm_conf, i32 0, i32 118), align 4
  %10 = zext i16 %9 to i32
  %11 = and i32 %10, 32768
  %12 = icmp ne i32 %11, 0
  br i1 %12, label %14, label %13

13:                                               ; preds = %1
  store i32 1, ptr %6, align 4
  br label %116

14:                                               ; preds = %1
  %15 = load ptr, ptr %2, align 8
  %16 = getelementptr inbounds nuw %struct.job_record, ptr %15, i32 0, i32 49
  %17 = load i32, ptr %16, align 8
  %18 = icmp ne i32 %17, 0
  br i1 %18, label %19, label %20

19:                                               ; preds = %14
  store i32 1, ptr %6, align 4
  br label %116

20:                                               ; preds = %14
  br label %21

21:                                               ; preds = %20
  %22 = load i64, ptr getelementptr inbounds nuw (%struct.slurm_conf_t, ptr @slurm_conf, i32 0, i32 42), align 8
  %23 = and i64 %22, 8192
  %24 = icmp ne i64 %23, 0
  br i1 %24, label %25, label %34

25:                                               ; preds = %21
  br label %26

26:                                               ; preds = %25
  %27 = call i32 @get_log_level()
  %28 = icmp sge i32 %27, 4
  br i1 %28, label %29, label %31

29:                                               ; preds = %26
  %30 = load ptr, ptr %2, align 8
  call void (i32, ptr, ...) @log_var(i32 noundef 4, ptr noundef @.str.9, ptr noundef @__func__.gs_job_start, ptr noundef %30)
  br label %31

31:                                               ; preds = %29, %26
  br label %32

32:                                               ; preds = %31
  br label %33

33:                                               ; preds = %32
  br label %34

34:                                               ; preds = %33, %21
  br label %35

35:                                               ; preds = %34
  br label %36

36:                                               ; preds = %35
  %37 = load ptr, ptr %2, align 8
  %38 = getelementptr inbounds nuw %struct.job_record, ptr %37, i32 0, i32 89
  %39 = load ptr, ptr %38, align 8
  %40 = icmp ne ptr %39, null
  br i1 %40, label %41, label %54

41:                                               ; preds = %36
  %42 = load ptr, ptr %2, align 8
  %43 = getelementptr inbounds nuw %struct.job_record, ptr %42, i32 0, i32 89
  %44 = load ptr, ptr %43, align 8
  %45 = getelementptr inbounds nuw %struct.part_record, ptr %44, i32 0, i32 34
  %46 = load ptr, ptr %45, align 8
  %47 = icmp ne ptr %46, null
  br i1 %47, label %48, label %54

48:                                               ; preds = %41
  %49 = load ptr, ptr %2, align 8
  %50 = getelementptr inbounds nuw %struct.job_record, ptr %49, i32 0, i32 89
  %51 = load ptr, ptr %50, align 8
  %52 = getelementptr inbounds nuw %struct.part_record, ptr %51, i32 0, i32 34
  %53 = load ptr, ptr %52, align 8
  store ptr %53, ptr %5, align 8
  br label %58

54:                                               ; preds = %41, %36
  %55 = load ptr, ptr %2, align 8
  %56 = getelementptr inbounds nuw %struct.job_record, ptr %55, i32 0, i32 86
  %57 = load ptr, ptr %56, align 8
  store ptr %57, ptr %5, align 8
  br label %58

58:                                               ; preds = %54, %48
  br label %59

59:                                               ; preds = %58
  call void @llvm.lifetime.start.p0(i64 4, ptr %7) #8
  %60 = call i32 @pthread_mutex_lock(ptr noundef @data_mutex) #8
  store i32 %60, ptr %7, align 4
  %61 = load i32, ptr %7, align 4
  %62 = icmp ne i32 %61, 0
  br i1 %62, label %63, label %66

63:                                               ; preds = %59
  %64 = load i32, ptr %7, align 4
  %65 = call ptr @__errno_location() #9
  store i32 %64, ptr %65, align 4
  call void (ptr, ...) @fatal_abort(ptr noundef @.str.1, ptr noundef @__func__.gs_job_start) #10
  unreachable

66:                                               ; preds = %59
  call void @llvm.lifetime.end.p0(i64 4, ptr %7) #8
  br label %67

67:                                               ; preds = %66
  br label %68

68:                                               ; preds = %67
  %69 = load ptr, ptr @gs_part_list, align 8
  %70 = load ptr, ptr %5, align 8
  %71 = call ptr @list_find_first(ptr noundef %69, ptr noundef @_find_gs_part, ptr noundef %70)
  store ptr %71, ptr %3, align 8
  %72 = load ptr, ptr %3, align 8
  %73 = icmp ne ptr %72, null
  br i1 %73, label %74, label %83

74:                                               ; preds = %68
  %75 = load ptr, ptr %3, align 8
  %76 = load ptr, ptr %2, align 8
  %77 = call zeroext i16 @_add_job_to_part(ptr noundef %75, ptr noundef %76)
  store i16 %77, ptr %4, align 2
  %78 = load i16, ptr %4, align 2
  %79 = zext i16 %78 to i32
  %80 = icmp eq i32 %79, 1
  br i1 %80, label %81, label %82

81:                                               ; preds = %74
  call void @_update_all_active_rows()
  br label %82

82:                                               ; preds = %81, %74
  br label %83

83:                                               ; preds = %82, %68
  br label %84

84:                                               ; preds = %83
  call void @llvm.lifetime.start.p0(i64 4, ptr %8) #8
  %85 = call i32 @pthread_mutex_unlock(ptr noundef @data_mutex) #8
  store i32 %85, ptr %8, align 4
  %86 = load i32, ptr %8, align 4
  %87 = icmp ne i32 %86, 0
  br i1 %87, label %88, label %91

88:                                               ; preds = %84
  %89 = load i32, ptr %8, align 4
  %90 = call ptr @__errno_location() #9
  store i32 %89, ptr %90, align 4
  call void (ptr, ...) @fatal_abort(ptr noundef @.str.2, ptr noundef @__func__.gs_job_start) #10
  unreachable

91:                                               ; preds = %84
  call void @llvm.lifetime.end.p0(i64 4, ptr %8) #8
  br label %92

92:                                               ; preds = %91
  br label %93

93:                                               ; preds = %92
  %94 = load ptr, ptr %3, align 8
  %95 = icmp ne ptr %94, null
  br i1 %95, label %100, label %96

96:                                               ; preds = %93
  %97 = load ptr, ptr %5, align 8
  %98 = load ptr, ptr %2, align 8
  %99 = call i32 (ptr, ...) @error(ptr noundef @.str.10, ptr noundef %97, ptr noundef %98)
  br label %100

100:                                              ; preds = %96, %93
  call void @_preempt_job_dequeue()
  br label %101

101:                                              ; preds = %100
  %102 = load i64, ptr getelementptr inbounds nuw (%struct.slurm_conf_t, ptr @slurm_conf, i32 0, i32 42), align 8
  %103 = and i64 %102, 8192
  %104 = icmp ne i64 %103, 0
  br i1 %104, label %105, label %113

105:                                              ; preds = %101
  br label %106

106:                                              ; preds = %105
  %107 = call i32 @get_log_level()
  %108 = icmp sge i32 %107, 4
  br i1 %108, label %109, label %110

109:                                              ; preds = %106
  call void (i32, ptr, ...) @log_var(i32 noundef 4, ptr noundef @.str.11)
  br label %110

110:                                              ; preds = %109, %106
  br label %111

111:                                              ; preds = %110
  br label %112

112:                                              ; preds = %111
  br label %113

113:                                              ; preds = %112, %101
  br label %114

114:                                              ; preds = %113
  br label %115

115:                                              ; preds = %114
  store i32 0, ptr %6, align 4
  br label %116

116:                                              ; preds = %115, %19, %13
  call void @llvm.lifetime.end.p0(i64 8, ptr %5) #8
  call void @llvm.lifetime.end.p0(i64 2, ptr %4) #8
  call void @llvm.lifetime.end.p0(i64 8, ptr %3) #8
  %117 = load i32, ptr %6, align 4
  switch i32 %117, label %119 [
    i32 0, label %118
    i32 1, label %118
  ]

118:                                              ; preds = %116, %116
  ret void

119:                                              ; preds = %116
  unreachable
}