; Function Attrs: nounwind uwtable
define dso_local void @gs_job_start(ptr noundef %0) local_unnamed_addr #0 {
  %2 = load i16, ptr getelementptr inbounds nuw (i8, ptr @slurm_conf, i64 796), align 4
  %.not = icmp sgt i16 %2, -1
  br i1 %.not, label %52, label %3

3:                                                ; preds = %1
  %4 = getelementptr inbounds nuw i8, ptr %0, i64 360
  %5 = load i32, ptr %4, align 8
  %.not22 = icmp eq i32 %5, 0
  br i1 %.not22, label %6, label %52

6:                                                ; preds = %3
  %7 = load i64, ptr getelementptr inbounds nuw (i8, ptr @slurm_conf, i64 320), align 8
  %8 = and i64 %7, 8192
  %.not23 = icmp eq i64 %8, 0
  br i1 %.not23, label %13, label %9

9:                                                ; preds = %6
  %10 = tail call i32 @get_log_level() #8
  %11 = icmp sgt i32 %10, 3
  br i1 %11, label %12, label %13

12:                                               ; preds = %9
  tail call void (i32, ptr, ...) @log_var(i32 noundef 4, ptr noundef nonnull @.str.9, ptr noundef nonnull @__func__.gs_job_start, ptr noundef nonnull %0) #8
  br label %13

13:                                               ; preds = %9, %12, %6
  %14 = getelementptr inbounds nuw i8, ptr %0, i64 672
  %15 = load ptr, ptr %14, align 8
  %.not24 = icmp eq ptr %15, null
  br i1 %.not24, label %19, label %16

16:                                               ; preds = %13
  %17 = getelementptr inbounds nuw i8, ptr %15, i64 232
  %18 = load ptr, ptr %17, align 8
  %.not25 = icmp eq ptr %18, null
  br i1 %.not25, label %19, label %22

19:                                               ; preds = %16, %13
  %20 = getelementptr inbounds nuw i8, ptr %0, i64 648
  %21 = load ptr, ptr %20, align 8
  br label %22

22:                                               ; preds = %16, %19
  %.0 = phi ptr [ %21, %19 ], [ %18, %16 ]
  %23 = tail call i32 @pthread_mutex_lock(ptr noundef nonnull @data_mutex) #8
  %.not26 = icmp eq i32 %23, 0
  br i1 %.not26, label %26, label %24

24:                                               ; preds = %22
  %25 = tail call ptr @__errno_location() #9
  store i32 %23, ptr %25, align 4
  tail call void (ptr, ...) @fatal_abort(ptr noundef nonnull @.str.1, ptr noundef nonnull @__func__.gs_job_start) #10
  unreachable

26:                                               ; preds = %22
  %27 = load ptr, ptr @gs_part_list, align 8
  %28 = tail call ptr @list_find_first(ptr noundef %27, ptr noundef nonnull @_find_gs_part, ptr noundef %.0) #8
  %.not27 = icmp eq ptr %28, null
  br i1 %.not27, label %.thread32, label %29

29:                                               ; preds = %26
  %30 = tail call fastcc zeroext i16 @_add_job_to_part(ptr noundef %28, ptr noundef nonnull %0)
  %31 = icmp eq i16 %30, 1
  br i1 %31, label %32, label %.thread

32:                                               ; preds = %29
  %33 = load ptr, ptr @gs_part_list, align 8
  tail call void @list_sort(ptr noundef %33, ptr noundef nonnull @_sort_partitions) #8
  %34 = load ptr, ptr @gs_part_list, align 8
  %35 = tail call ptr @list_iterator_create(ptr noundef %34) #8
  %36 = tail call ptr @list_next(ptr noundef %35) #8
  %.not3.i = icmp eq ptr %36, null
  br i1 %.not3.i, label %.loopexit, label %.lr.ph.i

.lr.ph.i:                                         ; preds = %32, %.lr.ph.i
  %37 = phi ptr [ %38, %.lr.ph.i ], [ %36, %32 ]
  tail call fastcc void @_update_active_row(ptr noundef %37, i32 noundef 1)
  %38 = tail call ptr @list_next(ptr noundef %35) #8
  %.not.i = icmp eq ptr %38, null
  br i1 %.not.i, label %.loopexit, label %.lr.ph.i, !llvm.loop !13

.loopexit:                                        ; preds = %.lr.ph.i, %32
  tail call void @list_iterator_destroy(ptr noundef %35) #8
  %39 = tail call i32 @pthread_mutex_unlock(ptr noundef nonnull @data_mutex) #8
  %.not28 = icmp eq i32 %39, 0
  br i1 %.not28, label %.thread31, label %42

.thread32:                                        ; preds = %26
  %40 = tail call i32 @pthread_mutex_unlock(ptr noundef nonnull @data_mutex) #8
  %.not2833 = icmp eq i32 %40, 0
  br i1 %.not2833, label %.thread34, label %42

.thread:                                          ; preds = %29
  %41 = tail call i32 @pthread_mutex_unlock(ptr noundef nonnull @data_mutex) #8
  %.not2830 = icmp eq i32 %41, 0
  br i1 %.not2830, label %.thread31, label %42

42:                                               ; preds = %.thread32, %.thread, %.loopexit
  %43 = phi i32 [ %41, %.thread ], [ %39, %.loopexit ], [ %40, %.thread32 ]
  %44 = tail call ptr @__errno_location() #9
  store i32 %43, ptr %44, align 4
  tail call void (ptr, ...) @fatal_abort(ptr noundef nonnull @.str.2, ptr noundef nonnull @__func__.gs_job_start) #10
  unreachable

.thread34:                                        ; preds = %.thread32
  %45 = tail call i32 (ptr, ...) @error(ptr noundef nonnull @.str.10, ptr noundef %.0, ptr noundef nonnull %0) #8
  br label %.thread31

.thread31:                                        ; preds = %.loopexit, %.thread, %.thread34
  tail call fastcc void @_preempt_job_dequeue()
  %46 = load i64, ptr getelementptr inbounds nuw (i8, ptr @slurm_conf, i64 320), align 8
  %47 = and i64 %46, 8192
  %.not29 = icmp eq i64 %47, 0
  br i1 %.not29, label %52, label %48

48:                                               ; preds = %.thread31
  %49 = tail call i32 @get_log_level() #8
  %50 = icmp sgt i32 %49, 3
  br i1 %50, label %51, label %52

51:                                               ; preds = %48
  tail call void (i32, ptr, ...) @log_var(i32 noundef 4, ptr noundef nonnull @.str.11) #8
  br label %52

52:                                               ; preds = %.thread31, %51, %48, %3, %1
  ret void
}